; Function Attrs: mustprogress uwtable
define noundef nonnull align 8 dereferenceable(400) ptr @_ZN2mu17ParserTokenReaderaSERKS0_(ptr noundef nonnull returned align 8 dereferenceable(400) %0, ptr noundef nonnull align 8 dereferenceable(400) %1) local_unnamed_addr #11 align 2 {
  %.not = icmp eq ptr %1, %0
  br i1 %.not, label %4, label %3

3:                                                ; preds = %2
  tail call void @_ZN2mu17ParserTokenReader6AssignERKS0_(ptr noundef nonnull align 8 dereferenceable(400) %0, ptr noundef nonnull align 8 dereferenceable(400) %1)
  br label %4

4:                                                ; preds = %3, %2
  ret ptr %0
}